target datalayout = "e-m:e-p270:32:32-p271:32:32-p272:64:64-i64:64-i128:128-f80:128-n8:16:32:64-S128"
target triple = "x86_64-pc-linux-gnu"

%union.pthread_mutex_t = type { %struct.__pthread_mutex_s }
%struct.__pthread_mutex_s = type { i32, i32, i32, i32, i32, i16, i16, %struct.__pthread_internal_list }
%struct.__pthread_internal_list = type { ptr, ptr }
%union.pthread_cond_t = type { %struct.__pthread_cond_s }
%struct.__pthread_cond_s = type { %union.__atomic_wide_counter, %union.__atomic_wide_counter, [2 x i32], [2 x i32], i32, i32, [2 x i32] }
%union.__atomic_wide_counter = type { i64 }
%struct.stepd_step_rec_t = type { ptr, ptr, i32, %union.pthread_cond_t, %union.pthread_mutex_t, %struct.slurm_step_id_msg, i32, i32, i32, i32, i32, i32, ptr, ptr, i32, i32, ptr, i32, i32, i32, i32, i32, ptr, ptr, ptr, ptr, i32, i32, i64, i64, i16, i32, ptr, ptr, ptr, i32, ptr, i32, ptr, i32, ptr, i16, i32, i32, i32, ptr, i32, ptr, ptr, ptr, ptr, i32, i32, ptr, ptr, i8, i8, i8, i64, i32, ptr, ptr, ptr, ptr, ptr, ptr, ptr, ptr, ptr, ptr, i32, i32, ptr, i8, %union.pthread_cond_t, %union.pthread_mutex_t, i64, ptr, i32, i32, i32, ptr, i64, ptr, ptr, i8, ptr, i16, ptr, ptr, ptr, ptr, ptr, ptr, i64, ptr, i64, ptr, i16, i8, i16, i32, ptr, i16, ptr, ptr, i16, ptr, ptr, ptr, i8 }
%struct.slurm_step_id_msg = type { i64, i32, i32, i32 }
%struct.jobacct_id_t = type { i32, i32, ptr }
%struct.extern_pid_t = type { ptr, i32 }
%struct.jobacctinfo = type { i32, i64, i32, i64, i32, i32, %struct.acct_gather_energy, double, double, i32, i32, i32, ptr, ptr, ptr, ptr, ptr, ptr, ptr, ptr, ptr, ptr, ptr, ptr, ptr, ptr, ptr, ptr, %struct.jobacct_id_t, i32, double, double, i64, i64 }
%struct.acct_gather_energy = type { i32, i64, i64, i32, i64, i64, i64 }

@.str.144 = private unnamed_addr constant [14 x i8] c"/proc/%d/stat\00", align 1
@.str.145 = private unnamed_addr constant [2 x i8] c"r\00", align 1
@.str.146 = private unnamed_addr constant [18 x i8] c"%s: fcntl(%s): %m\00", align 1
@__func__._wait_extern_pid = private unnamed_addr constant [17 x i8] c"_wait_extern_pid\00", align 1
@.str.147 = private unnamed_addr constant [7 x i8] c"%c %d \00", align 1
@.str.148 = private unnamed_addr constant [39 x i8] c"adding tracking of orphaned process %d\00", align 1

; Function Attrs: nounwind uwtable
define internal void @_block_on_pid(i32 noundef %0) #0 {
  %2 = alloca i32, align 4
  store i32 %0, ptr %2, align 4
  br label %3

3:                                                ; preds = %7, %1
  %4 = load i32, ptr %2, align 4
  %5 = call i32 @kill(i32 noundef %4, i32 noundef 0) #10
  %6 = icmp ne i32 %5, -1
  br i1 %6, label %7, label %9

7:                                                ; preds = %3
  %8 = call i32 @sleep(i32 noundef 1)
  br label %3, !llvm.loop !141

9:                                                ; preds = %3
  ret void
}

; Function Attrs: nounwind uwtable
define internal ptr @_wait_extern_pid(ptr noundef %0) #0 {
  %2 = alloca ptr, align 8
  %3 = alloca ptr, align 8
  %4 = alloca ptr, align 8
  %5 = alloca i32, align 4
  %6 = alloca ptr, align 8
  %7 = alloca ptr, align 8
  %8 = alloca i32, align 4
  %9 = alloca i32, align 4
  %10 = alloca [256 x i8], align 16
  %11 = alloca ptr, align 8
  %12 = alloca i32, align 4
  %13 = alloca [256 x i8], align 16
  %14 = alloca ptr, align 8
  %15 = alloca [1 x i8], align 1
  %16 = alloca i32, align 4
  %17 = alloca i32, align 4
  store ptr %0, ptr %2, align 8
  call void @llvm.lifetime.start.p0(i64 8, ptr %3) #10
  %18 = load ptr, ptr %2, align 8
  store ptr %18, ptr %3, align 8
  call void @llvm.lifetime.start.p0(i64 8, ptr %4) #10
  %19 = load ptr, ptr %3, align 8
  %20 = getelementptr inbounds nuw %struct.extern_pid_t, ptr %19, i32 0, i32 0
  %21 = load ptr, ptr %20, align 8
  store ptr %21, ptr %4, align 8
  call void @llvm.lifetime.start.p0(i64 4, ptr %5) #10
  %22 = load ptr, ptr %3, align 8
  %23 = getelementptr inbounds nuw %struct.extern_pid_t, ptr %22, i32 0, i32 1
  %24 = load i32, ptr %23, align 8
  store i32 %24, ptr %5, align 4
  call void @llvm.lifetime.start.p0(i64 8, ptr %6) #10
  store ptr null, ptr %6, align 8
  call void @llvm.lifetime.start.p0(i64 8, ptr %7) #10
  store ptr null, ptr %7, align 8
  call void @llvm.lifetime.start.p0(i64 4, ptr %8) #10
  store i32 0, ptr %8, align 4
  call void @llvm.lifetime.start.p0(i64 4, ptr %9) #10
  call void @llvm.lifetime.start.p0(i64 256, ptr %10) #10
  call void @llvm.lifetime.start.p0(i64 8, ptr %11) #10
  store ptr null, ptr %11, align 8
  call void @llvm.lifetime.start.p0(i64 4, ptr %12) #10
  call void @llvm.lifetime.start.p0(i64 256, ptr %13) #10
  call void @llvm.lifetime.start.p0(i64 8, ptr %14) #10
  call void @llvm.lifetime.start.p0(i64 1, ptr %15) #10
  call void @llvm.lifetime.start.p0(i64 4, ptr %16) #10
  call void @llvm.lifetime.start.p0(i64 4, ptr %17) #10
  call void @slurm_xfree(ptr noundef %3)
  %25 = load i32, ptr %5, align 4
  call void @_block_on_pid(i32 noundef %25)
  %26 = load i32, ptr %5, align 4
  %27 = call ptr @jobacct_gather_remove_task(i32 noundef %26)
  store ptr %27, ptr %6, align 8
  %28 = load ptr, ptr %6, align 8
  %29 = icmp ne ptr %28, null
  br i1 %29, label %30, label %41

30:                                               ; preds = %1
  %31 = load ptr, ptr %4, align 8
  %32 = getelementptr inbounds nuw %struct.stepd_step_rec_t, ptr %31, i32 0, i32 84
  %33 = load ptr, ptr %32, align 8
  %34 = getelementptr inbounds nuw %struct.jobacctinfo, ptr %33, i32 0, i32 6
  %35 = getelementptr inbounds nuw %struct.acct_gather_energy, ptr %34, i32 0, i32 2
  store i64 0, ptr %35, align 8
  %36 = load ptr, ptr %4, align 8
  %37 = getelementptr inbounds nuw %struct.stepd_step_rec_t, ptr %36, i32 0, i32 84
  %38 = load ptr, ptr %37, align 8
  %39 = load ptr, ptr %6, align 8
  call void @jobacctinfo_aggregate(ptr noundef %38, ptr noundef %39)
  %40 = load ptr, ptr %6, align 8
  call void @jobacctinfo_destroy(ptr noundef %40)
  br label %41

41:                                               ; preds = %30, %1
  %42 = load i32, ptr %5, align 4
  %43 = call i32 @acct_gather_profile_g_task_end(i32 noundef %42)
  %44 = load ptr, ptr %4, align 8
  %45 = getelementptr inbounds nuw %struct.stepd_step_rec_t, ptr %44, i32 0, i32 82
  %46 = load i64, ptr %45, align 8
  %47 = call i32 @proctrack_g_get_pids(i64 noundef %46, ptr noundef %7, ptr noundef %8)
  store i32 0, ptr %9, align 4
  br label %48

48:                                               ; preds = %125, %41
  %49 = load i32, ptr %9, align 4
  %50 = load i32, ptr %8, align 4
  %51 = icmp slt i32 %49, %50
  br i1 %51, label %52, label %128

52:                                               ; preds = %48
  %53 = getelementptr inbounds [256 x i8], ptr %10, i64 0, i64 0
  %54 = load ptr, ptr %7, align 8
  %55 = load i32, ptr %9, align 4
  %56 = sext i32 %55 to i64
  %57 = getelementptr inbounds i32, ptr %54, i64 %56
  %58 = load i32, ptr %57, align 4
  %59 = call i32 (ptr, i64, ptr, ...) @snprintf(ptr noundef %53, i64 noundef 256, ptr noundef @.str.144, i32 noundef %58) #10
  %60 = getelementptr inbounds [256 x i8], ptr %10, i64 0, i64 0
  %61 = call noalias ptr @fopen(ptr noundef %60, ptr noundef @.str.145)
  store ptr %61, ptr %11, align 8
  %62 = icmp ne ptr %61, null
  br i1 %62, label %64, label %63

63:                                               ; preds = %52
  br label %125

64:                                               ; preds = %52
  %65 = load ptr, ptr %11, align 8
  %66 = call i32 @fileno(ptr noundef %65) #10
  store i32 %66, ptr %12, align 4
  %67 = load i32, ptr %12, align 4
  %68 = call i32 (i32, i32, ...) @fcntl(i32 noundef %67, i32 noundef 2, i32 noundef 1)
  %69 = icmp eq i32 %68, -1
  br i1 %69, label %70, label %73

70:                                               ; preds = %64
  %71 = getelementptr inbounds [256 x i8], ptr %10, i64 0, i64 0
  %72 = call i32 (ptr, ...) @error(ptr noundef @.str.146, ptr noundef @__func__._wait_extern_pid, ptr noundef %71)
  br label %73

73:                                               ; preds = %70, %64
  %74 = load i32, ptr %12, align 4
  %75 = getelementptr inbounds [256 x i8], ptr %13, i64 0, i64 0
  %76 = call i64 @read(i32 noundef %74, ptr noundef %75, i64 noundef 255)
  %77 = trunc i64 %76 to i32
  store i32 %77, ptr %16, align 4
  %78 = load i32, ptr %16, align 4
  %79 = icmp sle i32 %78, 0
  br i1 %79, label %80, label %81

80:                                               ; preds = %73
  br label %122

81:                                               ; preds = %73
  %82 = load i32, ptr %16, align 4
  %83 = sext i32 %82 to i64
  %84 = getelementptr inbounds [256 x i8], ptr %13, i64 0, i64 %83
  store i8 0, ptr %84, align 1
  %85 = getelementptr inbounds [256 x i8], ptr %13, i64 0, i64 0
  %86 = call ptr @strrchr(ptr noundef %85, i32 noundef 41) #13
  store ptr %86, ptr %14, align 8
  %87 = load ptr, ptr %14, align 8
  %88 = icmp ne ptr %87, null
  br i1 %88, label %89, label %121

89:                                               ; preds = %81
  %90 = load ptr, ptr %14, align 8
  store i8 0, ptr %90, align 1
  %91 = load ptr, ptr %14, align 8
  %92 = getelementptr inbounds i8, ptr %91, i64 2
  %93 = getelementptr inbounds [1 x i8], ptr %15, i64 0, i64 0
  %94 = call i32 (ptr, ptr, ...) @__isoc99_sscanf(ptr noundef %92, ptr noundef @.str.147, ptr noundef %93, ptr noundef %17) #10
  %95 = load i32, ptr %17, align 4
  %96 = icmp eq i32 %95, 1
  br i1 %96, label %97, label %120

97:                                               ; preds = %89
  br label %98

98:                                               ; preds = %97
  br label %99

99:                                               ; preds = %98
  %100 = call i32 @get_log_level()
  %101 = icmp sge i32 %100, 6
  br i1 %101, label %102, label %108

102:                                              ; preds = %99
  %103 = load ptr, ptr %7, align 8
  %104 = load i32, ptr %9, align 4
  %105 = sext i32 %104 to i64
  %106 = getelementptr inbounds i32, ptr %103, i64 %105
  %107 = load i32, ptr %106, align 4
  call void (i32, ptr, ...) @log_var(i32 noundef 6, ptr noundef @.str.148, i32 noundef %107)
  br label %108

108:                                              ; preds = %102, %99
  br label %109

109:                                              ; preds = %108
  br label %110

110:                                              ; preds = %109
  br label %111

111:                                              ; preds = %110
  br label %112

112:                                              ; preds = %111
  %113 = load ptr, ptr %4, align 8
  %114 = load ptr, ptr %7, align 8
  %115 = load i32, ptr %9, align 4
  %116 = sext i32 %115 to i64
  %117 = getelementptr inbounds i32, ptr %114, i64 %116
  %118 = load i32, ptr %117, align 4
  %119 = call i32 @_handle_add_extern_pid_internal(ptr noundef %113, i32 noundef %118)
  br label %120

120:                                              ; preds = %112, %89
  br label %121

121:                                              ; preds = %120, %81
  br label %122

122:                                              ; preds = %121, %80
  %123 = load ptr, ptr %11, align 8
  %124 = call i32 @fclose(ptr noundef %123)
  br label %125

125:                                              ; preds = %122, %63
  %126 = load i32, ptr %9, align 4
  %127 = add nsw i32 %126, 1
  store i32 %127, ptr %9, align 4
  br label %48, !llvm.loop !140

128:                                              ; preds = %48
  call void @slurm_xfree(ptr noundef %7)
  call void @llvm.lifetime.end.p0(i64 4, ptr %17) #10
  call void @llvm.lifetime.end.p0(i64 4, ptr %16) #10
  call void @llvm.lifetime.end.p0(i64 1, ptr %15) #10
  call void @llvm.lifetime.end.p0(i64 8, ptr %14) #10
  call void @llvm.lifetime.end.p0(i64 256, ptr %13) #10
  call void @llvm.lifetime.end.p0(i64 4, ptr %12) #10
  call void @llvm.lifetime.end.p0(i64 8, ptr %11) #10
  call void @llvm.lifetime.end.p0(i64 256, ptr %10) #10
  call void @llvm.lifetime.end.p0(i64 4, ptr %9) #10
  call void @llvm.lifetime.end.p0(i64 4, ptr %8) #10
  call void @llvm.lifetime.end.p0(i64 8, ptr %7) #10
  call void @llvm.lifetime.end.p0(i64 8, ptr %6) #10
  call void @llvm.lifetime.end.p0(i64 4, ptr %5) #10
  call void @llvm.lifetime.end.p0(i64 8, ptr %4) #10
  call void @llvm.lifetime.end.p0(i64 8, ptr %3) #10
  ret ptr null
}