; Function Attrs: nounwind uwtable
define internal noalias noundef ptr @_wait_extern_pid(ptr noundef %0) #0 {
  %2 = alloca ptr, align 8
  %3 = alloca ptr, align 8
  %4 = alloca i32, align 4
  %5 = alloca [256 x i8], align 16
  %6 = alloca [256 x i8], align 16
  %7 = alloca [1 x i8], align 1
  %8 = alloca i32, align 4
  call void @llvm.lifetime.start.p0(i64 8, ptr nonnull %2) #13
  store ptr %0, ptr %2, align 8
  %9 = load ptr, ptr %0, align 8
  %10 = getelementptr inbounds nuw i8, ptr %0, i64 8
  %11 = load i32, ptr %10, align 8
  call void @llvm.lifetime.start.p0(i64 8, ptr nonnull %3) #13
  store ptr null, ptr %3, align 8
  call void @llvm.lifetime.start.p0(i64 4, ptr nonnull %4) #13
  store i32 0, ptr %4, align 4
  call void @llvm.lifetime.start.p0(i64 256, ptr nonnull %5) #13
  call void @llvm.lifetime.start.p0(i64 256, ptr nonnull %6) #13
  call void @llvm.lifetime.start.p0(i64 1, ptr nonnull %7) #13
  call void @llvm.lifetime.start.p0(i64 4, ptr nonnull %8) #13
  call void @slurm_xfree(ptr noundef nonnull %2) #13
  %12 = call i32 @kill(i32 noundef %11, i32 noundef 0) #13
  %.not1.i = icmp eq i32 %12, -1
  br i1 %.not1.i, label %_block_on_pid.exit, label %.lr.ph.i

.lr.ph.i:                                         ; preds = %1, %.lr.ph.i
  %13 = call i32 @sleep(i32 noundef 1) #13
  %14 = call i32 @kill(i32 noundef %11, i32 noundef 0) #13
  %.not.i = icmp eq i32 %14, -1
  br i1 %.not.i, label %_block_on_pid.exit, label %.lr.ph.i, !llvm.loop !139

_block_on_pid.exit:                               ; preds = %.lr.ph.i, %1
  %15 = call ptr @jobacct_gather_remove_task(i32 noundef %11) #13
  %.not = icmp eq ptr %15, null
  br i1 %.not, label %21, label %16

16:                                               ; preds = %_block_on_pid.exit
  %17 = getelementptr inbounds nuw i8, ptr %9, i64 712
  %18 = load ptr, ptr %17, align 8
  %19 = getelementptr inbounds nuw i8, ptr %18, i64 56
  store i64 0, ptr %19, align 8
  %20 = load ptr, ptr %17, align 8
  call void @jobacctinfo_aggregate(ptr noundef %20, ptr noundef nonnull %15) #13
  call void @jobacctinfo_destroy(ptr noundef nonnull %15) #13
  br label %21

21:                                               ; preds = %16, %_block_on_pid.exit
  %22 = call i32 @acct_gather_profile_g_task_end(i32 noundef %11) #13
  %23 = getelementptr inbounds nuw i8, ptr %9, i64 696
  %24 = load i64, ptr %23, align 8
  %25 = call i32 @proctrack_g_get_pids(i64 noundef %24, ptr noundef nonnull %3, ptr noundef nonnull %4) #13
  %26 = load i32, ptr %4, align 4
  %27 = icmp sgt i32 %26, 0
  br i1 %27, label %.lr.ph, label %._crit_edge

.lr.ph:                                           ; preds = %21, %66
  %indvars.iv = phi i64 [ %indvars.iv.next, %66 ], [ 0, %21 ]
  %28 = load ptr, ptr %3, align 8
  %29 = getelementptr inbounds nuw i32, ptr %28, i64 %indvars.iv
  %30 = load i32, ptr %29, align 4
  %31 = call i32 (ptr, i64, ptr, ...) @snprintf(ptr noundef nonnull dereferenceable(1) %5, i64 noundef 256, ptr noundef nonnull @.str.144, i32 noundef %30) #13
  %32 = call noalias ptr @fopen(ptr noundef nonnull %5, ptr noundef nonnull @.str.145)
  %.not28 = icmp eq ptr %32, null
  br i1 %.not28, label %66, label %33

33:                                               ; preds = %.lr.ph
  %34 = call i32 @fileno(ptr noundef nonnull %32) #13
  %35 = call i32 (i32, i32, ...) @fcntl(i32 noundef %34, i32 noundef 2, i32 noundef 1) #13
  %36 = icmp eq i32 %35, -1
  br i1 %36, label %37, label %39

37:                                               ; preds = %33
  %38 = call i32 (ptr, ...) @error(ptr noundef nonnull @.str.146, ptr noundef nonnull @__func__._wait_extern_pid, ptr noundef nonnull %5) #13
  br label %39

39:                                               ; preds = %37, %33
  %40 = call i64 @read(i32 noundef %34, ptr noundef nonnull %6, i64 noundef 255) #13
  %41 = trunc i64 %40 to i32
  %42 = icmp slt i32 %41, 1
  br i1 %42, label %64, label %43

43:                                               ; preds = %39
  %44 = and i64 %40, 2147483647
  %45 = getelementptr inbounds nuw [256 x i8], ptr %6, i64 0, i64 %44
  store i8 0, ptr %45, align 1
  %46 = call ptr @strrchr(ptr noundef nonnull dereferenceable(1) %6, i32 noundef 41) #16
  %.not29 = icmp eq ptr %46, null
  br i1 %.not29, label %64, label %47

47:                                               ; preds = %43
  store i8 0, ptr %46, align 1
  %48 = getelementptr inbounds nuw i8, ptr %46, i64 2
  %49 = call i32 (ptr, ptr, ...) @__isoc99_sscanf(ptr noundef nonnull %48, ptr noundef nonnull @.str.147, ptr noundef nonnull %7, ptr noundef nonnull %8) #13
  %50 = load i32, ptr %8, align 4
  %51 = icmp eq i32 %50, 1
  br i1 %51, label %52, label %64

52:                                               ; preds = %47
  %53 = call i32 @get_log_level() #13
  %54 = icmp sgt i32 %53, 5
  br i1 %54, label %55, label %59

55:                                               ; preds = %52
  %56 = load ptr, ptr %3, align 8
  %57 = getelementptr inbounds nuw i32, ptr %56, i64 %indvars.iv
  %58 = load i32, ptr %57, align 4
  call void (i32, ptr, ...) @log_var(i32 noundef 6, ptr noundef nonnull @.str.148, i32 noundef %58) #13
  br label %59

59:                                               ; preds = %55, %52
  %60 = load ptr, ptr %3, align 8
  %61 = getelementptr inbounds nuw i32, ptr %60, i64 %indvars.iv
  %62 = load i32, ptr %61, align 4
  %63 = call fastcc i32 @_handle_add_extern_pid_internal(ptr noundef %9, i32 noundef %62)
  br label %64

64:                                               ; preds = %43, %59, %47, %39
  %65 = call i32 @fclose(ptr noundef nonnull %32)
  br label %66

66:                                               ; preds = %.lr.ph, %64
  %indvars.iv.next = add nuw nsw i64 %indvars.iv, 1
  %67 = load i32, ptr %4, align 4
  %68 = sext i32 %67 to i64
  %69 = icmp slt i64 %indvars.iv.next, %68
  br i1 %69, label %.lr.ph, label %._crit_edge, !llvm.loop !140

._crit_edge:                                      ; preds = %66, %21
  call void @slurm_xfree(ptr noundef nonnull %3) #13
  call void @llvm.lifetime.end.p0(i64 4, ptr nonnull %8) #13
  call void @llvm.lifetime.end.p0(i64 1, ptr nonnull %7) #13
  call void @llvm.lifetime.end.p0(i64 256, ptr nonnull %6) #13
  call void @llvm.lifetime.end.p0(i64 256, ptr nonnull %5) #13
  call void @llvm.lifetime.end.p0(i64 4, ptr nonnull %4) #13
  call void @llvm.lifetime.end.p0(i64 8, ptr nonnull %3) #13
  call void @llvm.lifetime.end.p0(i64 8, ptr nonnull %2) #13
  ret ptr null
}